; Function Attrs: nounwind uwtable
define hidden signext range(i8 0, 2) i8 @nfaExecMcClellan16_testEOD(ptr noundef readonly captures(none) %0, ptr noundef readonly captures(none) %1, ptr noundef readnone captures(none) %2, i64 noundef %3, ptr noundef readonly captures(none) %4, ptr noundef %5) local_unnamed_addr #0 {
  %7 = load i16, ptr %1, align 2
  %8 = getelementptr inbounds nuw i8, ptr %0, i64 64
  %9 = getelementptr inbounds nuw i8, ptr %0, i64 76
  %10 = load i32, ptr %9, align 4
  %11 = zext i32 %10 to i64
  %12 = getelementptr inbounds nuw i8, ptr %0, i64 %11
  %13 = zext i16 %7 to i64
  %14 = getelementptr inbounds nuw i8, ptr %0, i64 99
  %15 = load i8, ptr %14, align 1
  %16 = icmp eq i8 %15, 1
  br i1 %16, label %17, label %20

17:                                               ; preds = %6
  %18 = getelementptr inbounds nuw i8, ptr %0, i64 94
  %19 = load i16, ptr %18, align 2
  %.not.i = icmp ult i16 %7, %19
  br i1 %.not.i, label %20, label %mcclellanCheckEOD.exit

20:                                               ; preds = %17, %6
  %21 = getelementptr inbounds nuw %struct.mstate_aux, ptr %12, i64 %13, i32 1
  %22 = load i32, ptr %21, align 4
  %.not12.i = icmp eq i32 %22, 0
  br i1 %.not12.i, label %mcclellanCheckEOD.exit, label %23

23:                                               ; preds = %20
  %24 = zext i32 %22 to i64
  %25 = getelementptr inbounds nuw i8, ptr %8, i64 %24
  %26 = getelementptr inbounds i8, ptr %25, i64 -64
  %27 = load i32, ptr %26, align 4
  %28 = getelementptr inbounds i8, ptr %25, i64 -60
  %.not38.i.i4 = icmp eq i32 %27, 0
  br i1 %.not38.i.i4, label %mcclellanCheckEOD.exit, label %.lr.ph.preheader

.lr.ph.preheader:                                 ; preds = %23
  %wide.trip.count = zext i32 %27 to i64
  br label %.lr.ph

29:                                               ; preds = %.lr.ph
  %indvars.iv.next = add nuw nsw i64 %indvars.iv, 1
  %exitcond.not = icmp eq i64 %indvars.iv.next, %wide.trip.count
  br i1 %exitcond.not, label %mcclellanCheckEOD.exit, label %.lr.ph

.lr.ph:                                           ; preds = %.lr.ph.preheader, %29
  %indvars.iv = phi i64 [ 0, %.lr.ph.preheader ], [ %indvars.iv.next, %29 ]
  %30 = getelementptr inbounds nuw [0 x i32], ptr %28, i64 0, i64 %indvars.iv
  %31 = load i32, ptr %30, align 4
  %32 = tail call i32 %4(i64 noundef 0, i64 noundef %3, i32 noundef %31, ptr noundef %5) #15
  %33 = icmp eq i32 %32, 0
  br i1 %33, label %mcclellanCheckEOD.exit, label %29

mcclellanCheckEOD.exit:                           ; preds = %.lr.ph, %29, %23, %17, %20
  %.0.i = phi i8 [ 1, %17 ], [ 1, %20 ], [ 1, %23 ], [ 0, %.lr.ph ], [ 1, %29 ]
  ret i8 %.0.i
}